Certificate:
    Data:
        Version: 3 (0x2)
        Serial Number:
            73:0e:d1:45:4e:8d:ed:2a:0c:52:b8:7c:26:ea:d2:f3:7a:b8:dd:59
        Signature Algorithm: sha256WithRSAEncryption
        Issuer: CN = localhost
        Validity
            Not Before: Jun  6 21:02:34 2021 GMT
            Not After : Jul  6 21:02:34 2021 GMT
        Subject: CN = localhost
        Subject Public Key Info:
            Public Key Algorithm: rsaEncryption
                RSA Public-Key: (2048 bit)
                Modulus:
                    00:d1:15:4a:f3:dc:56:d9:46:ad:da:6a:a7:23:ac:
                    9c:3d:02:b3:45:e5:b9:a1:18:96:c4:44:a2:26:ee:
                    61:d7:8c:e5:b0:fe:51:7b:c7:07:5f:eb:9f:38:49:
                    07:7a:78:e5:9d:5a:6c:9c:e3:5f:7d:77:83:83:d0:
                    14:13:1b:1d:5a:cd:40:64:4a:13:20:e3:d8:f5:fa:
                    16:60:ad:f8:47:50:d0:ea:d6:cd:0f:b8:3b:98:65:
                    65:fa:ca:8b:1c:ac:f8:a8:28:64:2f:d4:d8:69:1f:
                    59:3b:b7:21:35:d5:85:4a:8a:97:10:59:51:f0:1e:
                    6b:0c:0c:42:77:7f:cc:41:3e:0d:37:b9:27:30:6d:
                    4b:f5:68:4e:33:7b:58:60:92:d0:70:b6:ef:88:fd:
                    e6:5c:83:9b:02:23:b7:f5:f9:39:ef:47:83:fd:fb:
                    53:d0:89:8e:e0:39:44:02:e7:23:92:34:06:92:94:
                    6b:03:f9:84:31:08:b0:bd:e4:15:d0:df:51:d0:13:
                    3c:f9:77:c8:b9:06:ab:1f:d8:9f:a0:f7:9c:86:14:
                    29:27:1a:5a:0e:a9:50:83:65:3e:59:53:ae:c2:e4:
                    a2:fe:58:72:df:60:ac:47:31:36:ae:66:cd:cf:af:
                    0f:dc:c9:02:9c:b6:01:9b:8e:60:2d:d1:37:15:3c:
                    4b:07
                Exponent: 65537 (0x10001)
        X509v3 extensions:
            X509v3 Subject Key Identifier: 
                0B:D2:2F:1E:50:00:CE:83:16:FD:EC:AE:0F:D0:D6:66:8D:E6:67:E9
            X509v3 Authority Key Identifier: 
                keyid:0B:D2:2F:1E:50:00:CE:83:16:FD:EC:AE:0F:D0:D6:66:8D:E6:67:E9

            X509v3 Basic Constraints: critical
                CA:TRUE
    Signature Algorithm: sha256WithRSAEncryption
         a1:8d:de:a8:a3:00:cb:3c:20:91:11:f6:46:04:86:6d:59:5b:
         72:c2:22:3a:c8:19:a0:21:02:89:5c:dd:1f:74:bb:7c:f8:d1:
         62:a4:32:65:5e:07:a0:49:07:37:78:06:ab:c6:07:4e:0e:95:
         4c:9f:4a:4f:95:d2:21:6b:48:ff:38:5c:de:3e:c3:2b:e8:4a:
         57:0c:18:74:e9:6a:e5:d1:d3:08:95:52:b3:9e:ea:4d:4b:5a:
         ee:aa:00:2b:62:2b:36:65:42:ee:0e:8f:e7:94:01:5b:7f:08:
         75:20:8f:56:df:da:21:89:b9:3e:8b:b3:32:d1:e0:e5:78:62:
         80:53:39:9e:4c:b1:2e:fe:89:de:5c:bb:11:2c:d4:45:e7:c8:
         8b:b5:43:a9:14:e9:cf:1e:5c:04:77:a2:aa:db:2c:6e:ce:34:
         18:eb:93:a1:31:32:14:21:33:1d:ff:16:c4:f5:a4:75:9b:0c:
         04:c9:e9:0d:0c:36:a0:0c:f8:df:b9:62:15:cf:a8:f4:13:b2:
         3e:63:c4:87:d8:4c:61:79:a3:a8:cf:26:88:a5:d0:36:21:da:
         23:62:1b:66:e6:9f:4d:20:2e:7a:e5:ca:ff:ad:5e:8a:11:b1:
         85:61:87:cc:6e:65:27:b5:71:51:6b:b4:95:dd:ba:f2:a5:4d:
         eb:8b:da:7e
-----BEGIN CERTIFICATE-----
MIIDCTCCAfGgAwIBAgIUcw7RRU6N7SoMUrh8JurS83q43VkwDQYJKoZIhvcNAQEL
BQAwFDESMBAGA1UEAwwJbG9jYWxob3N0MB4XDTIxMDYwNjIxMDIzNFoXDTIxMDcw
NjIxMDIzNFowFDESMBAGA1UEAwwJbG9jYWxob3N0MIIBIjANBgkqhkiG9w0BAQEF
AAOCAQ8AMIIBCgKCAQEA0RVK89xW2Uat2mqnI6ycPQKzReW5oRiWxESiJu5h14zl
sP5Re8cHX+ufOEkHenjlnVpsnONffXeDg9AUExsdWs1AZEoTIOPY9foWYK34R1DQ
6tbND7g7mGVl+sqLHKz4qChkL9TYaR9ZO7chNdWFSoqXEFlR8B5rDAxCd3/MQT4N
N7knMG1L9WhOM3tYYJLQcLbviP3mXIObAiO39fk570eD/ftT0ImO4DlEAucjkjQG
kpRrA/mEMQiwveQV0N9R0BM8+XfIuQarH9ifoPechhQpJxpaDqlQg2U+WVOuwuSi
/lhy32CsRzE2rmbNz68P3MkCnLYBm45gLdE3FTxLBwIDAQABo1MwUTAdBgNVHQ4E
FgQUC9IvHlAAzoMW/eyuD9DWZo3mZ+kwHwYDVR0jBBgwFoAUC9IvHlAAzoMW/eyu
D9DWZo3mZ+kwDwYDVR0TAQH/BAUwAwEB/zANBgkqhkiG9w0BAQsFAAOCAQEAoY3e
qKMAyzwgkRH2RgSGbVlbcsIiOsgZoCECiVzdH3S7fPjRYqQyZV4HoEkHN3gGq8YH
Tg6VTJ9KT5XSIWtI/zhc3j7DK+hKVwwYdOlq5dHTCJVSs57qTUta7qoAK2IrNmVC
7g6P55QBW38IdSCPVt/aIYm5PouzMtHg5XhigFM5nkyxLv6J3ly7ESzURefIi7VD
qRTpzx5cBHeiqtssbs40GOuToTEyFCEzHf8WxPWkdZsMBMnpDQw2oAz437liFc+o
9BOyPmPEh9hMYXmjqM8miKXQNiHaI2IbZuafTSAueuXK/61eihGxhWGHzG5lJ7Vx
UWu0ld268qVN64vafg==
-----END CERTIFICATE-----
